Certificate:
    Data:
        Version: 1 (0x0)
        Serial Number:
            0c:14:c3:15:ec:5b:6e:59:52:f8:a7:87:4a:04:98:36:dd:9f:58:75
        Signature Algorithm: NULL
        Issuer: CN = root.example.com
        Validity
            Not Before: Jun 30 14:03:10 2020 GMT
            Not After : Jun 28 14:03:10 2030 GMT
        Subject: CN = root.example.com
        Subject Public Key Info:
            Public Key Algorithm: rsaEncryption
                RSA Public-Key: (2048 bit)
                Modulus:
                    00:b0:8e:64:15:79:89:cf:9b:5b:97:2b:b9:98:3c:
                    24:0f:cb:3e:37:a7:e4:66:b9:89:d2:5f:a6:ac:50:
                    dc:92:4c:bc:f8:93:f8:99:7f:98:6a:5a:97:16:3c:
                    94:d7:d5:5e:b9:31:f4:81:80:d3:08:2d:d3:34:1c:
                    f3:5f:36:12:8c:f3:35:8f:dd:61:23:91:7e:9f:e6:
                    b6:34:c0:2a:c8:7f:37:05:65:42:1b:eb:57:c2:0c:
                    1f:64:bf:0e:1e:c2:b7:d1:9a:21:f6:fa:b2:f8:03:
                    7d:88:fa:96:74:c8:fe:c0:22:ce:a2:6f:e1:a1:14:
                    62:a4:9d:6b:c9:83:8c:25:4f:86:b0:f7:ec:fa:4b:
                    bc:60:a1:43:d5:03:cb:5e:cf:eb:85:7b:11:d7:28:
                    ec:8d:97:a7:24:d0:84:e1:66:ab:22:41:60:b9:c8:
                    ec:e3:2b:52:6c:a2:86:3d:00:ef:17:56:ef:ab:83:
                    25:26:78:6a:e8:5e:74:fa:cb:0b:20:5b:d4:23:a3:
                    de:d8:d9:6d:c6:be:79:a8:d4:05:1a:d5:b9:86:31:
                    c7:49:f2:2f:5a:5d:74:70:bd:3d:f4:ed:0d:37:f7:
                    b6:c8:20:5b:80:6e:42:d9:61:02:43:8c:56:cf:57:
                    2e:cd:00:ea:54:8a:06:2e:89:82:c7:27:9d:40:2a:
                    cb:83
                Exponent: 65537 (0x10001)
    Signature Algorithm: NULL
-----BEGIN CERTIFICATE-----
MIIDFzCCAf+gAwIBAgIUDBTDFexbbllS+KeHSgSYNt2fWHUwDQYJKoZIhvcNAQEL
BQAwGzEZMBcGA1UEAwwQcm9vdC5leGFtcGxlLmNvbTAeFw0yMDA2MzAxNDAzMTBa
Fw0zMDA2MjgxNDAzMTBaMBsxGTAXBgNVBAMMEHJvb3QuZXhhbXBsZS5jb20wggEi
MA0GCSqGSIb3DQEBAQUAA4IBDwAwggEKAoIBAQCwjmQVeYnPm1uXK7mYPCQPyz43
p+RmuYnSX6asUNySTLz4k/iZf5hqWpcWPJTX1V65MfSBgNMILdM0HPNfNhKM8zWP
3WEjkX6f5rY0wCrIfzcFZUIb61fCDB9kvw4ewrfRmiH2+rL4A32I+pZ0yP7AIs6i
b+GhFGKknWvJg4wlT4aw9+z6S7xgoUPVA8tez+uFexHXKOyNl6ck0IThZqsiQWC5
yOzjK1JsooY9AO8XVu+rgyUmeGroXnT6ywsgW9Qjo97Y2W3Gvnmo1AUa1bmGMcdJ
8i9aXXRwvT307Q0397bIIFuAbkLZYQJDjFbPVy7NAOpUigYuiYLHJ51AKsuDAgMB
AAGjUzBRMB0GA1UdDgQWBBQrq5pVHz8jYKUaTACIUOVpuLth/zAfBgNVHSMEGDAW
gBQrq5pVHz8jYKUaTACIUOVpuLth/zAPBgNVHRMBAf8EBTADAQH/MA0GCSqGSIb3
DQEBCwUAA4IBAQBFaiuAMasKEcQHkV2mzQzYpY5TBnjGRaM9FPvghkpMBXkLy/GD
NcJuwldGOlxB4CpUAogtkEnYDIn+ghrlFzZ4Sk2upau6WpRtDwD6J986d2RQTMrs
8Mds4PT4m8iI16hrz+Ig84S+gZ9xERFjc5wBiUjHXzGNwujv+HfqoIEUqrdyxYcD
gFTAqECP0Jx2ETX00coz0/PzbjFRz5/tBKuSDdzZQR8oNbDBezBKkJW43RscWuId
eghvhCs33Zw8CwRz36gTQcBxolgXg435WBOEawAs1vZpeNx07rYm6tj5X5uY+pLB
93Pt4wXcMwXAgaATRFga76suVl3vdn7TP0cT
-----END CERTIFICATE-----
